target datalayout = "e-m:e-p270:32:32-p271:32:32-p272:64:64-i64:64-i128:128-f80:128-n8:16:32:64-S128"
target triple = "x86_64-pc-linux-gnu"

%struct.b3OpenCLPlatformInfo = type { [1024 x i8], [1024 x i8], [1024 x i8] }

@__clewGetPlatformInfo = external global ptr, align 8
@.str.10 = private unnamed_addr constant [16 x i8] c"OCL Error : %d\0A\00", align 1
@.str.11 = private unnamed_addr constant [16 x i8] c"Platform info:\0A\00", align 1
@.str.12 = private unnamed_addr constant [29 x i8] c"  CL_PLATFORM_VENDOR: \09\09\09%s\0A\00", align 1
@.str.13 = private unnamed_addr constant [27 x i8] c"  CL_PLATFORM_NAME: \09\09\09%s\0A\00", align 1
@.str.14 = private unnamed_addr constant [30 x i8] c"  CL_PLATFORM_VERSION: \09\09\09%s\0A\00", align 1

; Function Attrs: mustprogress uwtable
define dso_local void @_ZN13b3OpenCLUtils15getPlatformInfoEP15_cl_platform_idP20b3OpenCLPlatformInfo(ptr noundef %0, ptr noundef %1) #0 align 2 {
  %3 = alloca ptr, align 8
  %4 = alloca ptr, align 8
  %5 = alloca i32, align 4
  store ptr %0, ptr %3, align 8, !tbaa !16
  store ptr %1, ptr %4, align 8, !tbaa !20
  call void @llvm.lifetime.start.p0(i64 4, ptr %5) #9
  %6 = load ptr, ptr @__clewGetPlatformInfo, align 8, !tbaa !9
  %7 = load ptr, ptr %3, align 8, !tbaa !16
  %8 = load ptr, ptr %4, align 8, !tbaa !20
  %9 = getelementptr inbounds nuw %struct.b3OpenCLPlatformInfo, ptr %8, i32 0, i32 0
  %10 = getelementptr inbounds [1024 x i8], ptr %9, i64 0, i64 0
  %11 = call i32 %6(ptr noundef %7, i32 noundef 2307, i64 noundef 1024, ptr noundef %10, ptr noundef null)
  store i32 %11, ptr %5, align 4, !tbaa !12
  %12 = load i32, ptr %5, align 4, !tbaa !12
  %13 = icmp ne i32 %12, 0
  br i1 %13, label %14, label %17

14:                                               ; preds = %2
  %15 = load i32, ptr %5, align 4, !tbaa !12
  %16 = call i32 (ptr, ...) @printf(ptr noundef @.str.10, i32 noundef %15)
  br label %17

17:                                               ; preds = %14, %2
  %18 = load ptr, ptr @__clewGetPlatformInfo, align 8, !tbaa !9
  %19 = load ptr, ptr %3, align 8, !tbaa !16
  %20 = load ptr, ptr %4, align 8, !tbaa !20
  %21 = getelementptr inbounds nuw %struct.b3OpenCLPlatformInfo, ptr %20, i32 0, i32 1
  %22 = getelementptr inbounds [1024 x i8], ptr %21, i64 0, i64 0
  %23 = call i32 %18(ptr noundef %19, i32 noundef 2306, i64 noundef 1024, ptr noundef %22, ptr noundef null)
  store i32 %23, ptr %5, align 4, !tbaa !12
  %24 = load i32, ptr %5, align 4, !tbaa !12
  %25 = icmp ne i32 %24, 0
  br i1 %25, label %26, label %29

26:                                               ; preds = %17
  %27 = load i32, ptr %5, align 4, !tbaa !12
  %28 = call i32 (ptr, ...) @printf(ptr noundef @.str.10, i32 noundef %27)
  br label %29

29:                                               ; preds = %26, %17
  %30 = load ptr, ptr @__clewGetPlatformInfo, align 8, !tbaa !9
  %31 = load ptr, ptr %3, align 8, !tbaa !16
  %32 = load ptr, ptr %4, align 8, !tbaa !20
  %33 = getelementptr inbounds nuw %struct.b3OpenCLPlatformInfo, ptr %32, i32 0, i32 2
  %34 = getelementptr inbounds [1024 x i8], ptr %33, i64 0, i64 0
  %35 = call i32 %30(ptr noundef %31, i32 noundef 2305, i64 noundef 1024, ptr noundef %34, ptr noundef null)
  store i32 %35, ptr %5, align 4, !tbaa !12
  %36 = load i32, ptr %5, align 4, !tbaa !12
  %37 = icmp ne i32 %36, 0
  br i1 %37, label %38, label %41

38:                                               ; preds = %29
  %39 = load i32, ptr %5, align 4, !tbaa !12
  %40 = call i32 (ptr, ...) @printf(ptr noundef @.str.10, i32 noundef %39)
  br label %41

41:                                               ; preds = %38, %29
  call void @llvm.lifetime.end.p0(i64 4, ptr %5) #9
  ret void
}

; Function Attrs: mustprogress nounwind uwtable
define linkonce_odr dso_local void @_ZN20b3OpenCLPlatformInfoC2Ev(ptr noundef nonnull align 1 dereferenceable(3072) %0) unnamed_addr #5 comdat align 2 {
  %2 = alloca ptr, align 8
  store ptr %0, ptr %2, align 8, !tbaa !20
  %3 = load ptr, ptr %2, align 8
  %4 = getelementptr inbounds nuw %struct.b3OpenCLPlatformInfo, ptr %3, i32 0, i32 0
  %5 = getelementptr inbounds [1024 x i8], ptr %4, i64 0, i64 0
  store i8 0, ptr %5, align 1, !tbaa !22
  %6 = getelementptr inbounds nuw %struct.b3OpenCLPlatformInfo, ptr %3, i32 0, i32 1
  %7 = getelementptr inbounds [1024 x i8], ptr %6, i64 0, i64 0
  store i8 0, ptr %7, align 1, !tbaa !22
  %8 = getelementptr inbounds nuw %struct.b3OpenCLPlatformInfo, ptr %3, i32 0, i32 2
  %9 = getelementptr inbounds [1024 x i8], ptr %8, i64 0, i64 0
  store i8 0, ptr %9, align 1, !tbaa !22
  ret void
}

; Function Attrs: mustprogress uwtable
define dso_local void @b3OpenCLUtils_printPlatformInfo(ptr noundef %0) #0 {
  %2 = alloca ptr, align 8
  %3 = alloca %struct.b3OpenCLPlatformInfo, align 1
  store ptr %0, ptr %2, align 8, !tbaa !16
  call void @llvm.lifetime.start.p0(i64 3072, ptr %3) #9
  call void @_ZN20b3OpenCLPlatformInfoC2Ev(ptr noundef nonnull align 1 dereferenceable(3072) %3)
  %4 = load ptr, ptr %2, align 8, !tbaa !16
  call void @_ZN13b3OpenCLUtils15getPlatformInfoEP15_cl_platform_idP20b3OpenCLPlatformInfo(ptr noundef %4, ptr noundef %3)
  call void (ptr, ...) @b3OutputPrintfVarArgsInternal(ptr noundef @.str.11)
  %5 = getelementptr inbounds nuw %struct.b3OpenCLPlatformInfo, ptr %3, i32 0, i32 0
  %6 = getelementptr inbounds [1024 x i8], ptr %5, i64 0, i64 0
  call void (ptr, ...) @b3OutputPrintfVarArgsInternal(ptr noundef @.str.12, ptr noundef %6)
  %7 = getelementptr inbounds nuw %struct.b3OpenCLPlatformInfo, ptr %3, i32 0, i32 1
  %8 = getelementptr inbounds [1024 x i8], ptr %7, i64 0, i64 0
  call void (ptr, ...) @b3OutputPrintfVarArgsInternal(ptr noundef @.str.13, ptr noundef %8)
  %9 = getelementptr inbounds nuw %struct.b3OpenCLPlatformInfo, ptr %3, i32 0, i32 2
  %10 = getelementptr inbounds [1024 x i8], ptr %9, i64 0, i64 0
  call void (ptr, ...) @b3OutputPrintfVarArgsInternal(ptr noundef @.str.14, ptr noundef %10)
  call void @llvm.lifetime.end.p0(i64 3072, ptr %3) #9
  ret void
}