; Function Attrs: mustprogress uwtable
define dso_local void @b3OpenCLUtils_printPlatformInfo(ptr noundef %0) local_unnamed_addr #0 {
  %2 = alloca %struct.b3OpenCLPlatformInfo, align 1
  call void @llvm.lifetime.start.p0(i64 3072, ptr nonnull %2) #12
  store i8 0, ptr %2, align 1, !tbaa !14
  %3 = getelementptr inbounds nuw i8, ptr %2, i64 1024
  store i8 0, ptr %3, align 1, !tbaa !14
  %4 = getelementptr inbounds nuw i8, ptr %2, i64 2048
  store i8 0, ptr %4, align 1, !tbaa !14
  %5 = load ptr, ptr @__clewGetPlatformInfo, align 8, !tbaa !8
  %6 = call i32 %5(ptr noundef %0, i32 noundef 2307, i64 noundef 1024, ptr noundef nonnull %2, ptr noundef null)
  %.not.i = icmp eq i32 %6, 0
  br i1 %.not.i, label %9, label %7

7:                                                ; preds = %1
  %8 = call i32 (ptr, ...) @printf(ptr noundef nonnull dereferenceable(1) @.str.10, i32 noundef %6)
  br label %9

9:                                                ; preds = %7, %1
  %10 = load ptr, ptr @__clewGetPlatformInfo, align 8, !tbaa !8
  %11 = call i32 %10(ptr noundef %0, i32 noundef 2306, i64 noundef 1024, ptr noundef nonnull %3, ptr noundef null)
  %.not13.i = icmp eq i32 %11, 0
  br i1 %.not13.i, label %14, label %12

12:                                               ; preds = %9
  %13 = call i32 (ptr, ...) @printf(ptr noundef nonnull dereferenceable(1) @.str.10, i32 noundef %11)
  br label %14

14:                                               ; preds = %12, %9
  %15 = load ptr, ptr @__clewGetPlatformInfo, align 8, !tbaa !8
  %16 = call i32 %15(ptr noundef %0, i32 noundef 2305, i64 noundef 1024, ptr noundef nonnull %4, ptr noundef null)
  %.not14.i = icmp eq i32 %16, 0
  br i1 %.not14.i, label %_ZN13b3OpenCLUtils15getPlatformInfoEP15_cl_platform_idP20b3OpenCLPlatformInfo.exit, label %17

17:                                               ; preds = %14
  %18 = call i32 (ptr, ...) @printf(ptr noundef nonnull dereferenceable(1) @.str.10, i32 noundef %16)
  br label %_ZN13b3OpenCLUtils15getPlatformInfoEP15_cl_platform_idP20b3OpenCLPlatformInfo.exit

_ZN13b3OpenCLUtils15getPlatformInfoEP15_cl_platform_idP20b3OpenCLPlatformInfo.exit: ; preds = %14, %17
  call void (ptr, ...) @b3OutputPrintfVarArgsInternal(ptr noundef nonnull @.str.11)
  call void (ptr, ...) @b3OutputPrintfVarArgsInternal(ptr noundef nonnull @.str.12, ptr noundef nonnull %2)
  call void (ptr, ...) @b3OutputPrintfVarArgsInternal(ptr noundef nonnull @.str.13, ptr noundef nonnull %3)
  call void (ptr, ...) @b3OutputPrintfVarArgsInternal(ptr noundef nonnull @.str.14, ptr noundef nonnull %4)
  call void @llvm.lifetime.end.p0(i64 3072, ptr nonnull %2) #12
  ret void
}